; Function Attrs: cold nounwind optsize uwtable
define internal range(i32 -1094995529, 1) i32 @y41p_encode_init(ptr noundef %0) #0 {
  %2 = getelementptr inbounds nuw i8, ptr %0, i64 112
  %3 = load i32, ptr %2, align 8, !tbaa !4
  %4 = and i32 %3, 7
  %.not = icmp eq i32 %4, 0
  br i1 %.not, label %6, label %5

5:                                                ; preds = %1
  tail call void (ptr, i32, ptr, ...) @av_log(ptr noundef nonnull %0, i32 noundef 16, ptr noundef nonnull @.str.2) #3
  br label %10

6:                                                ; preds = %1
  %7 = getelementptr inbounds nuw i8, ptr %0, i64 648
  store i32 12, ptr %7, align 8, !tbaa !27
  %8 = tail call i64 @ff_guess_coded_bitrate(ptr noundef nonnull %0) #3
  %9 = getelementptr inbounds nuw i8, ptr %0, i64 56
  store i64 %8, ptr %9, align 8, !tbaa !28
  br label %10

10:                                               ; preds = %6, %5
  %.0 = phi i32 [ -1094995529, %5 ], [ 0, %6 ]
  ret i32 %.0
}